; Function Attrs: mustprogress uwtable
define internal void @_ZL25destroy_made_transport_opPvN4absl12lts_202308026StatusE(ptr noundef %arg, ptr nocapture noundef readonly %error) #5 personality ptr @__gxx_personality_v0 {
entry:
  %ref.tmp = alloca %"class.grpc_core::DebugLocation", align 1
  %agg.tmp = alloca %"class.absl::lts_20230802::Status", align 8
  %inner_on_complete = getelementptr inbounds i8, ptr %arg, i64 32
  %0 = load ptr, ptr %inner_on_complete, align 8
  %1 = load i64, ptr %error, align 8
  store i64 %1, ptr %agg.tmp, align 8
  %and.i.i.i = and i64 %1, 1
  %cmp.i.i.i = icmp eq i64 %and.i.i.i, 0
  br i1 %cmp.i.i.i, label %_ZN4absl12lts_202308026StatusC2ERKS1_.exit, label %if.then.i.i

if.then.i.i:                                      ; preds = %entry
  %sub.i.i.i = add nsw i64 %1, -1
  %2 = inttoptr i64 %sub.i.i.i to ptr
  %3 = atomicrmw add ptr %2, i32 1 monotonic, align 4
  br label %_ZN4absl12lts_202308026StatusC2ERKS1_.exit

_ZN4absl12lts_202308026StatusC2ERKS1_.exit:       ; preds = %entry, %if.then.i.i
  invoke void @_ZN9grpc_core7ExecCtx3RunERKNS_13DebugLocationEP12grpc_closureN4absl12lts_202308026StatusE(ptr noundef nonnull align 1 dereferenceable(1) %ref.tmp, ptr noundef %0, ptr noundef nonnull %agg.tmp)
          to label %invoke.cont unwind label %lpad

invoke.cont:                                      ; preds = %_ZN4absl12lts_202308026StatusC2ERKS1_.exit
  %4 = load i64, ptr %agg.tmp, align 8
  %and.i.i.i2 = and i64 %4, 1
  %cmp.i.i.i3 = icmp eq i64 %and.i.i.i2, 0
  br i1 %cmp.i.i.i3, label %delete.notnull, label %if.then.i.i4

if.then.i.i4:                                     ; preds = %invoke.cont
  invoke void @_ZN4absl12lts_202308026Status15UnrefNonInlinedEm(i64 noundef %4)
          to label %delete.notnull unwind label %terminate.lpad.i

terminate.lpad.i:                                 ; preds = %if.then.i.i4
  %5 = landingpad { ptr, i32 }
          catch ptr null
  %6 = extractvalue { ptr, i32 } %5, 0
  call void @__clang_call_terminate(ptr %6) #24
  unreachable

delete.notnull:                                   ; preds = %if.then.i.i4, %invoke.cont
  %goaway_error.i.i = getelementptr inbounds i8, ptr %arg, i64 72
  %7 = load i64, ptr %goaway_error.i.i, align 8
  %and.i.i.i.i.i = and i64 %7, 1
  %cmp.i.i.i.i.i = icmp eq i64 %and.i.i.i.i.i, 0
  br i1 %cmp.i.i.i.i.i, label %_ZN4absl12lts_202308026StatusD2Ev.exit.i.i, label %if.then.i.i.i.i

if.then.i.i.i.i:                                  ; preds = %delete.notnull
  invoke void @_ZN4absl12lts_202308026Status15UnrefNonInlinedEm(i64 noundef %7)
          to label %_ZN4absl12lts_202308026StatusD2Ev.exit.i.i unwind label %terminate.lpad.i.i.i

terminate.lpad.i.i.i:                             ; preds = %if.then.i.i.i.i
  %8 = landingpad { ptr, i32 }
          catch ptr null
  %9 = extractvalue { ptr, i32 } %8, 0
  call void @__clang_call_terminate(ptr %9) #24
  unreachable

_ZN4absl12lts_202308026StatusD2Ev.exit.i.i:       ; preds = %if.then.i.i.i.i, %delete.notnull
  %disconnect_with_error.i.i = getelementptr inbounds i8, ptr %arg, i64 64
  %10 = load i64, ptr %disconnect_with_error.i.i, align 8
  %and.i.i.i1.i.i = and i64 %10, 1
  %cmp.i.i.i2.i.i = icmp eq i64 %and.i.i.i1.i.i, 0
  br i1 %cmp.i.i.i2.i.i, label %_ZN4absl12lts_202308026StatusD2Ev.exit5.i.i, label %if.then.i.i3.i.i

if.then.i.i3.i.i:                                 ; preds = %_ZN4absl12lts_202308026StatusD2Ev.exit.i.i
  invoke void @_ZN4absl12lts_202308026Status15UnrefNonInlinedEm(i64 noundef %10)
          to label %_ZN4absl12lts_202308026StatusD2Ev.exit5.i.i unwind label %terminate.lpad.i4.i.i

terminate.lpad.i4.i.i:                            ; preds = %if.then.i.i3.i.i
  %11 = landingpad { ptr, i32 }
          catch ptr null
  %12 = extractvalue { ptr, i32 } %11, 0
  call void @__clang_call_terminate(ptr %12) #24
  unreachable

_ZN4absl12lts_202308026StatusD2Ev.exit5.i.i:      ; preds = %if.then.i.i3.i.i, %_ZN4absl12lts_202308026StatusD2Ev.exit.i.i
  %start_connectivity_watch.i.i = getelementptr inbounds i8, ptr %arg, i64 48
  %13 = load ptr, ptr %start_connectivity_watch.i.i, align 8
  %cmp.not.i.i.i = icmp eq ptr %13, null
  br i1 %cmp.not.i.i.i, label %delete.end, label %if.then.i.i.i

if.then.i.i.i:                                    ; preds = %_ZN4absl12lts_202308026StatusD2Ev.exit5.i.i
  %vtable.i.i.i.i = load ptr, ptr %13, align 8
  %14 = load ptr, ptr %vtable.i.i.i.i, align 8
  invoke void %14(ptr noundef nonnull align 8 dereferenceable(16) %13)
          to label %delete.end unwind label %terminate.lpad.i6.i.i

terminate.lpad.i6.i.i:                            ; preds = %if.then.i.i.i
  %15 = landingpad { ptr, i32 }
          catch ptr null
  %16 = extractvalue { ptr, i32 } %15, 0
  call void @__clang_call_terminate(ptr %16) #24
  unreachable

delete.end:                                       ; preds = %if.then.i.i.i, %_ZN4absl12lts_202308026StatusD2Ev.exit5.i.i
  call void @_ZdlPv(ptr noundef nonnull %arg) #25
  ret void

lpad:                                             ; preds = %_ZN4absl12lts_202308026StatusC2ERKS1_.exit
  %17 = landingpad { ptr, i32 }
          cleanup
  call void @_ZN4absl12lts_202308026StatusD2Ev(ptr noundef nonnull align 8 dereferenceable(8) %agg.tmp) #23
  resume { ptr, i32 } %17
}